; Function Attrs: mustprogress uwtable
define void @_ZN3gmx24AbstractAverageHistogramC2ERKNS_25AnalysisHistogramSettingsE(ptr noundef nonnull align 8 dereferenceable(120) %0, ptr nocapture noundef nonnull readonly align 4 dereferenceable(21) %1) unnamed_addr #3 align 2 personality ptr @__gxx_personality_v0 {
  tail call void @_ZN3gmx25AbstractAnalysisArrayDataC2Ev(ptr noundef nonnull align 8 dereferenceable(94) %0)
  store ptr getelementptr inbounds inrange(-16, 40) ({ [7 x ptr] }, ptr @_ZTVN3gmx24AbstractAverageHistogramE, i64 0, i32 0, i64 2), ptr %0, align 8
  %3 = getelementptr inbounds i8, ptr %0, i64 96
  tail call void @llvm.memcpy.p0.p0.i64(ptr noundef nonnull align 8 dereferenceable(24) %3, ptr noundef nonnull align 4 dereferenceable(24) %1, i64 24, i1 false)
  %4 = getelementptr inbounds i8, ptr %1, i64 16
  %5 = load i32, ptr %4, align 4
  invoke void @_ZN3gmx25AbstractAnalysisArrayData11setRowCountEi(ptr noundef nonnull align 8 dereferenceable(94) %0, i32 noundef %5)
          to label %6 unwind label %15

6:                                                ; preds = %2
  %7 = load float, ptr %1, align 4
  %8 = fpext float %7 to double
  %9 = getelementptr inbounds i8, ptr %1, i64 8
  %10 = load float, ptr %9, align 4
  %11 = fpext float %10 to double
  %12 = tail call double @llvm.fmuladd.f64(double %11, double 5.000000e-01, double %8)
  %13 = fptrunc double %12 to float
  invoke void @_ZN3gmx25AbstractAnalysisArrayData8setXAxisEff(ptr noundef nonnull align 8 dereferenceable(94) %0, float noundef %13, float noundef %10)
          to label %14 unwind label %15

14:                                               ; preds = %6
  ret void

15:                                               ; preds = %6, %2
  %16 = landingpad { ptr, i32 }
          cleanup
  tail call void @_ZN3gmx25AbstractAnalysisArrayDataD2Ev(ptr noundef nonnull align 8 dereferenceable(94) %0) #26
  resume { ptr, i32 } %16
}